target datalayout = "e-m:e-p270:32:32-p271:32:32-p272:64:64-i64:64-i128:128-f80:128-n8:16:32:64-S128"
target triple = "x86_64-pc-linux-gnu"

@.str.17 = private unnamed_addr constant [25 x i8] c"../openssl/test/bntest.c\00", align 1
@ctx = internal global ptr null, align 8
@.str.76 = private unnamed_addr constant [13 x i8] c"d = BN_new()\00", align 1
@.str.88 = private unnamed_addr constant [2 x i8] c"d\00", align 1
@.str.101 = private unnamed_addr constant [2 x i8] c"e\00", align 1
@.str.633 = private unnamed_addr constant [7 x i8] c"ModExp\00", align 1
@.str.639 = private unnamed_addr constant [18 x i8] c"a = getBN(s, \22A\22)\00", align 1
@.str.640 = private unnamed_addr constant [2 x i8] c"A\00", align 1
@.str.644 = private unnamed_addr constant [15 x i8] c"ret = BN_new()\00", align 1
@.str.754 = private unnamed_addr constant [18 x i8] c"m = getBN(s, \22M\22)\00", align 1
@.str.755 = private unnamed_addr constant [2 x i8] c"M\00", align 1
@.str.766 = private unnamed_addr constant [18 x i8] c"e = getBN(s, \22E\22)\00", align 1
@.str.767 = private unnamed_addr constant [2 x i8] c"E\00", align 1
@.str.768 = private unnamed_addr constant [29 x i8] c"mod_exp = getBN(s, \22ModExp\22)\00", align 1
@.str.769 = private unnamed_addr constant [30 x i8] c"BN_mod_exp(ret, a, e, m, ctx)\00", align 1
@.str.770 = private unnamed_addr constant [14 x i8] c"A ^ E (mod M)\00", align 1
@.str.771 = private unnamed_addr constant [41 x i8] c"BN_mod_exp_mont(ret, a, e, m, ctx, NULL)\00", align 1
@.str.772 = private unnamed_addr constant [21 x i8] c"A ^ E (mod M) (mont)\00", align 1
@.str.773 = private unnamed_addr constant [51 x i8] c"BN_mod_exp_mont_consttime(ret, a, e, m, ctx, NULL)\00", align 1
@.str.774 = private unnamed_addr constant [26 x i8] c"A ^ E (mod M) (mont const\00", align 1
@.str.775 = private unnamed_addr constant [13 x i8] c"050505050505\00", align 1
@.str.776 = private unnamed_addr constant [3 x i8] c"02\00", align 1
@.str.778 = private unnamed_addr constant [28 x i8] c"BN_mod_exp(d, a, b, c, ctx)\00", align 1
@.str.779 = private unnamed_addr constant [21 x i8] c"BN_mul(e, a, a, ctx)\00", align 1

; Function Attrs: nounwind uwtable
define internal i32 @file_modexp(ptr noundef %0) #0 {
  %2 = alloca ptr, align 8
  %3 = alloca ptr, align 8
  %4 = alloca ptr, align 8
  %5 = alloca ptr, align 8
  %6 = alloca ptr, align 8
  %7 = alloca ptr, align 8
  %8 = alloca ptr, align 8
  %9 = alloca ptr, align 8
  %10 = alloca ptr, align 8
  %11 = alloca i32, align 4
  store ptr %0, ptr %2, align 8, !tbaa !70
  call void @llvm.lifetime.start.p0(i64 8, ptr %3) #7
  store ptr null, ptr %3, align 8, !tbaa !13
  call void @llvm.lifetime.start.p0(i64 8, ptr %4) #7
  store ptr null, ptr %4, align 8, !tbaa !13
  call void @llvm.lifetime.start.p0(i64 8, ptr %5) #7
  store ptr null, ptr %5, align 8, !tbaa !13
  call void @llvm.lifetime.start.p0(i64 8, ptr %6) #7
  store ptr null, ptr %6, align 8, !tbaa !13
  call void @llvm.lifetime.start.p0(i64 8, ptr %7) #7
  store ptr null, ptr %7, align 8, !tbaa !13
  call void @llvm.lifetime.start.p0(i64 8, ptr %8) #7
  store ptr null, ptr %8, align 8, !tbaa !13
  call void @llvm.lifetime.start.p0(i64 8, ptr %9) #7
  store ptr null, ptr %9, align 8, !tbaa !13
  call void @llvm.lifetime.start.p0(i64 8, ptr %10) #7
  store ptr null, ptr %10, align 8, !tbaa !13
  call void @llvm.lifetime.start.p0(i64 4, ptr %11) #7
  store i32 0, ptr %11, align 4, !tbaa !4
  %12 = load ptr, ptr %2, align 8, !tbaa !70
  %13 = call ptr @getBN(ptr noundef %12, ptr noundef @.str.640)
  store ptr %13, ptr %3, align 8, !tbaa !13
  %14 = call i32 @test_ptr(ptr noundef @.str.17, i32 noundef 1670, ptr noundef @.str.639, ptr noundef %13)
  %15 = icmp ne i32 %14, 0
  br i1 %15, label %16, label %39

16:                                               ; preds = %1
  %17 = load ptr, ptr %2, align 8, !tbaa !70
  %18 = call ptr @getBN(ptr noundef %17, ptr noundef @.str.767)
  store ptr %18, ptr %4, align 8, !tbaa !13
  %19 = call i32 @test_ptr(ptr noundef @.str.17, i32 noundef 1671, ptr noundef @.str.766, ptr noundef %18)
  %20 = icmp ne i32 %19, 0
  br i1 %20, label %21, label %39

21:                                               ; preds = %16
  %22 = load ptr, ptr %2, align 8, !tbaa !70
  %23 = call ptr @getBN(ptr noundef %22, ptr noundef @.str.755)
  store ptr %23, ptr %5, align 8, !tbaa !13
  %24 = call i32 @test_ptr(ptr noundef @.str.17, i32 noundef 1672, ptr noundef @.str.754, ptr noundef %23)
  %25 = icmp ne i32 %24, 0
  br i1 %25, label %26, label %39

26:                                               ; preds = %21
  %27 = load ptr, ptr %2, align 8, !tbaa !70
  %28 = call ptr @getBN(ptr noundef %27, ptr noundef @.str.633)
  store ptr %28, ptr %6, align 8, !tbaa !13
  %29 = call i32 @test_ptr(ptr noundef @.str.17, i32 noundef 1673, ptr noundef @.str.768, ptr noundef %28)
  %30 = icmp ne i32 %29, 0
  br i1 %30, label %31, label %39

31:                                               ; preds = %26
  %32 = call ptr @BN_new()
  store ptr %32, ptr %7, align 8, !tbaa !13
  %33 = call i32 @test_ptr(ptr noundef @.str.17, i32 noundef 1674, ptr noundef @.str.644, ptr noundef %32)
  %34 = icmp ne i32 %33, 0
  br i1 %34, label %35, label %39

35:                                               ; preds = %31
  %36 = call ptr @BN_new()
  store ptr %36, ptr %10, align 8, !tbaa !13
  %37 = call i32 @test_ptr(ptr noundef @.str.17, i32 noundef 1675, ptr noundef @.str.76, ptr noundef %36)
  %38 = icmp ne i32 %37, 0
  br i1 %38, label %40, label %39

39:                                               ; preds = %35, %31, %26, %21, %16, %1
  br label %126

40:                                               ; preds = %35
  %41 = load ptr, ptr %7, align 8, !tbaa !13
  %42 = load ptr, ptr %3, align 8, !tbaa !13
  %43 = load ptr, ptr %4, align 8, !tbaa !13
  %44 = load ptr, ptr %5, align 8, !tbaa !13
  %45 = load ptr, ptr @ctx, align 8, !tbaa !10
  %46 = call i32 @BN_mod_exp(ptr noundef %41, ptr noundef %42, ptr noundef %43, ptr noundef %44, ptr noundef %45)
  %47 = icmp ne i32 %46, 0
  %48 = zext i1 %47 to i32
  %49 = call i32 @test_true(ptr noundef @.str.17, i32 noundef 1678, ptr noundef @.str.769, i32 noundef %48)
  %50 = icmp ne i32 %49, 0
  br i1 %50, label %51, label %56

51:                                               ; preds = %40
  %52 = load ptr, ptr %6, align 8, !tbaa !13
  %53 = load ptr, ptr %7, align 8, !tbaa !13
  %54 = call i32 @equalBN(ptr noundef @.str.770, ptr noundef %52, ptr noundef %53)
  %55 = icmp ne i32 %54, 0
  br i1 %55, label %57, label %56

56:                                               ; preds = %51, %40
  br label %126

57:                                               ; preds = %51
  %58 = load ptr, ptr %5, align 8, !tbaa !13
  %59 = call i32 @BN_is_odd(ptr noundef %58)
  %60 = icmp ne i32 %59, 0
  br i1 %60, label %61, label %95

61:                                               ; preds = %57
  %62 = load ptr, ptr %7, align 8, !tbaa !13
  %63 = load ptr, ptr %3, align 8, !tbaa !13
  %64 = load ptr, ptr %4, align 8, !tbaa !13
  %65 = load ptr, ptr %5, align 8, !tbaa !13
  %66 = load ptr, ptr @ctx, align 8, !tbaa !10
  %67 = call i32 @BN_mod_exp_mont(ptr noundef %62, ptr noundef %63, ptr noundef %64, ptr noundef %65, ptr noundef %66, ptr noundef null)
  %68 = icmp ne i32 %67, 0
  %69 = zext i1 %68 to i32
  %70 = call i32 @test_true(ptr noundef @.str.17, i32 noundef 1683, ptr noundef @.str.771, i32 noundef %69)
  %71 = icmp ne i32 %70, 0
  br i1 %71, label %72, label %93

72:                                               ; preds = %61
  %73 = load ptr, ptr %6, align 8, !tbaa !13
  %74 = load ptr, ptr %7, align 8, !tbaa !13
  %75 = call i32 @equalBN(ptr noundef @.str.772, ptr noundef %73, ptr noundef %74)
  %76 = icmp ne i32 %75, 0
  br i1 %76, label %77, label %93

77:                                               ; preds = %72
  %78 = load ptr, ptr %7, align 8, !tbaa !13
  %79 = load ptr, ptr %3, align 8, !tbaa !13
  %80 = load ptr, ptr %4, align 8, !tbaa !13
  %81 = load ptr, ptr %5, align 8, !tbaa !13
  %82 = load ptr, ptr @ctx, align 8, !tbaa !10
  %83 = call i32 @BN_mod_exp_mont_consttime(ptr noundef %78, ptr noundef %79, ptr noundef %80, ptr noundef %81, ptr noundef %82, ptr noundef null)
  %84 = icmp ne i32 %83, 0
  %85 = zext i1 %84 to i32
  %86 = call i32 @test_true(ptr noundef @.str.17, i32 noundef 1686, ptr noundef @.str.773, i32 noundef %85)
  %87 = icmp ne i32 %86, 0
  br i1 %87, label %88, label %93

88:                                               ; preds = %77
  %89 = load ptr, ptr %6, align 8, !tbaa !13
  %90 = load ptr, ptr %7, align 8, !tbaa !13
  %91 = call i32 @equalBN(ptr noundef @.str.774, ptr noundef %89, ptr noundef %90)
  %92 = icmp ne i32 %91, 0
  br i1 %92, label %94, label %93

93:                                               ; preds = %88, %77, %72, %61
  br label %126

94:                                               ; preds = %88
  br label %95

95:                                               ; preds = %94, %57
  %96 = call i32 @BN_hex2bn(ptr noundef %3, ptr noundef @.str.775)
  %97 = call i32 @BN_hex2bn(ptr noundef %8, ptr noundef @.str.776)
  %98 = call i32 @BN_hex2bn(ptr noundef %9, ptr noundef @.str.777)
  %99 = load ptr, ptr %10, align 8, !tbaa !13
  %100 = load ptr, ptr %3, align 8, !tbaa !13
  %101 = load ptr, ptr %8, align 8, !tbaa !13
  %102 = load ptr, ptr %9, align 8, !tbaa !13
  %103 = load ptr, ptr @ctx, align 8, !tbaa !10
  %104 = call i32 @BN_mod_exp(ptr noundef %99, ptr noundef %100, ptr noundef %101, ptr noundef %102, ptr noundef %103)
  %105 = icmp ne i32 %104, 0
  %106 = zext i1 %105 to i32
  %107 = call i32 @test_true(ptr noundef @.str.17, i32 noundef 1701, ptr noundef @.str.778, i32 noundef %106)
  %108 = icmp ne i32 %107, 0
  br i1 %108, label %109, label %124

109:                                              ; preds = %95
  %110 = load ptr, ptr %4, align 8, !tbaa !13
  %111 = load ptr, ptr %3, align 8, !tbaa !13
  %112 = load ptr, ptr %3, align 8, !tbaa !13
  %113 = load ptr, ptr @ctx, align 8, !tbaa !10
  %114 = call i32 @BN_mul(ptr noundef %110, ptr noundef %111, ptr noundef %112, ptr noundef %113)
  %115 = icmp ne i32 %114, 0
  %116 = zext i1 %115 to i32
  %117 = call i32 @test_true(ptr noundef @.str.17, i32 noundef 1702, ptr noundef @.str.779, i32 noundef %116)
  %118 = icmp ne i32 %117, 0
  br i1 %118, label %119, label %124

119:                                              ; preds = %109
  %120 = load ptr, ptr %10, align 8, !tbaa !13
  %121 = load ptr, ptr %4, align 8, !tbaa !13
  %122 = call i32 @test_BN_eq(ptr noundef @.str.17, i32 noundef 1703, ptr noundef @.str.88, ptr noundef @.str.101, ptr noundef %120, ptr noundef %121)
  %123 = icmp ne i32 %122, 0
  br i1 %123, label %125, label %124

124:                                              ; preds = %119, %109, %95
  br label %126

125:                                              ; preds = %119
  store i32 1, ptr %11, align 4, !tbaa !4
  br label %126

126:                                              ; preds = %125, %124, %93, %56, %39
  %127 = load ptr, ptr %3, align 8, !tbaa !13
  call void @BN_free(ptr noundef %127)
  %128 = load ptr, ptr %8, align 8, !tbaa !13
  call void @BN_free(ptr noundef %128)
  %129 = load ptr, ptr %9, align 8, !tbaa !13
  call void @BN_free(ptr noundef %129)
  %130 = load ptr, ptr %10, align 8, !tbaa !13
  call void @BN_free(ptr noundef %130)
  %131 = load ptr, ptr %4, align 8, !tbaa !13
  call void @BN_free(ptr noundef %131)
  %132 = load ptr, ptr %5, align 8, !tbaa !13
  call void @BN_free(ptr noundef %132)
  %133 = load ptr, ptr %6, align 8, !tbaa !13
  call void @BN_free(ptr noundef %133)
  %134 = load ptr, ptr %7, align 8, !tbaa !13
  call void @BN_free(ptr noundef %134)
  %135 = load i32, ptr %11, align 4, !tbaa !4
  call void @llvm.lifetime.end.p0(i64 4, ptr %11) #7
  call void @llvm.lifetime.end.p0(i64 8, ptr %10) #7
  call void @llvm.lifetime.end.p0(i64 8, ptr %9) #7
  call void @llvm.lifetime.end.p0(i64 8, ptr %8) #7
  call void @llvm.lifetime.end.p0(i64 8, ptr %7) #7
  call void @llvm.lifetime.end.p0(i64 8, ptr %6) #7
  call void @llvm.lifetime.end.p0(i64 8, ptr %5) #7
  call void @llvm.lifetime.end.p0(i64 8, ptr %4) #7
  call void @llvm.lifetime.end.p0(i64 8, ptr %3) #7
  ret i32 %135
}