; Function Attrs: nounwind uwtable
define internal range(i32 0, 2) i32 @file_modexp(ptr noundef readonly captures(none) %0) #1 {
  %2 = alloca ptr, align 8
  %3 = alloca ptr, align 8
  %4 = alloca ptr, align 8
  call void @llvm.lifetime.start.p0(i64 8, ptr nonnull %2) #8
  call void @llvm.lifetime.start.p0(i64 8, ptr nonnull %3) #8
  store ptr null, ptr %3, align 8, !tbaa !21
  call void @llvm.lifetime.start.p0(i64 8, ptr nonnull %4) #8
  store ptr null, ptr %4, align 8, !tbaa !21
  %5 = tail call fastcc ptr @getBN(ptr noundef %0, ptr noundef nonnull @.str.640)
  store ptr %5, ptr %2, align 8, !tbaa !21
  %6 = tail call i32 @test_ptr(ptr noundef nonnull @.str.17, i32 noundef 1670, ptr noundef nonnull @.str.639, ptr noundef %5) #8
  %.not = icmp eq i32 %6, 0
  br i1 %.not, label %70, label %7

7:                                                ; preds = %1
  %8 = tail call fastcc ptr @getBN(ptr noundef %0, ptr noundef nonnull @.str.767)
  %9 = tail call i32 @test_ptr(ptr noundef nonnull @.str.17, i32 noundef 1671, ptr noundef nonnull @.str.766, ptr noundef %8) #8
  %.not34 = icmp eq i32 %9, 0
  br i1 %.not34, label %70, label %10

10:                                               ; preds = %7
  %11 = tail call fastcc ptr @getBN(ptr noundef %0, ptr noundef nonnull @.str.755)
  %12 = tail call i32 @test_ptr(ptr noundef nonnull @.str.17, i32 noundef 1672, ptr noundef nonnull @.str.754, ptr noundef %11) #8
  %.not35 = icmp eq i32 %12, 0
  br i1 %.not35, label %70, label %13

13:                                               ; preds = %10
  %14 = tail call fastcc ptr @getBN(ptr noundef %0, ptr noundef nonnull @.str.633)
  %15 = tail call i32 @test_ptr(ptr noundef nonnull @.str.17, i32 noundef 1673, ptr noundef nonnull @.str.768, ptr noundef %14) #8
  %.not36 = icmp eq i32 %15, 0
  br i1 %.not36, label %70, label %16

16:                                               ; preds = %13
  %17 = tail call ptr @BN_new() #8
  %18 = tail call i32 @test_ptr(ptr noundef nonnull @.str.17, i32 noundef 1674, ptr noundef nonnull @.str.644, ptr noundef %17) #8
  %.not37 = icmp eq i32 %18, 0
  br i1 %.not37, label %70, label %19

19:                                               ; preds = %16
  %20 = tail call ptr @BN_new() #8
  %21 = tail call i32 @test_ptr(ptr noundef nonnull @.str.17, i32 noundef 1675, ptr noundef nonnull @.str.76, ptr noundef %20) #8
  %.not38 = icmp eq i32 %21, 0
  br i1 %.not38, label %70, label %22

22:                                               ; preds = %19
  %23 = load ptr, ptr @ctx, align 8, !tbaa !6
  %24 = tail call i32 @BN_mod_exp(ptr noundef %17, ptr noundef %5, ptr noundef %8, ptr noundef %11, ptr noundef %23) #8
  %25 = icmp ne i32 %24, 0
  %26 = zext i1 %25 to i32
  %27 = tail call i32 @test_true(ptr noundef nonnull @.str.17, i32 noundef 1678, ptr noundef nonnull @.str.769, i32 noundef %26) #8
  %.not39 = icmp eq i32 %27, 0
  br i1 %.not39, label %70, label %28

28:                                               ; preds = %22
  %29 = tail call i32 @BN_cmp(ptr noundef %14, ptr noundef %17) #8
  %30 = icmp eq i32 %29, 0
  br i1 %30, label %equalBN.exit, label %equalBN.exit.thread

equalBN.exit.thread:                              ; preds = %28
  tail call void (ptr, i32, ptr, ...) @test_error(ptr noundef nonnull @.str.17, i32 noundef 135, ptr noundef nonnull @.str.493, ptr noundef nonnull @.str.770) #8
  %31 = tail call i32 @test_BN_eq(ptr noundef nonnull @.str.17, i32 noundef 136, ptr noundef nonnull @.str.494, ptr noundef nonnull @.str.495, ptr noundef %14, ptr noundef %17) #8
  br label %70

equalBN.exit:                                     ; preds = %28
  %32 = tail call i32 @BN_is_odd(ptr noundef %11) #8
  %.not41 = icmp eq i32 %32, 0
  br i1 %.not41, label %49, label %33

33:                                               ; preds = %equalBN.exit
  %34 = load ptr, ptr @ctx, align 8, !tbaa !6
  %35 = tail call i32 @BN_mod_exp_mont(ptr noundef %17, ptr noundef %5, ptr noundef %8, ptr noundef %11, ptr noundef %34, ptr noundef null) #8
  %36 = icmp ne i32 %35, 0
  %37 = zext i1 %36 to i32
  %38 = tail call i32 @test_true(ptr noundef nonnull @.str.17, i32 noundef 1683, ptr noundef nonnull @.str.771, i32 noundef %37) #8
  %.not42 = icmp eq i32 %38, 0
  br i1 %.not42, label %70, label %39

39:                                               ; preds = %33
  %40 = tail call fastcc i32 @equalBN(ptr noundef nonnull @.str.772, ptr noundef %14, ptr noundef %17)
  %.not43 = icmp eq i32 %40, 0
  br i1 %.not43, label %70, label %41

41:                                               ; preds = %39
  %42 = load ptr, ptr @ctx, align 8, !tbaa !6
  %43 = tail call i32 @BN_mod_exp_mont_consttime(ptr noundef %17, ptr noundef %5, ptr noundef %8, ptr noundef %11, ptr noundef %42, ptr noundef null) #8
  %44 = icmp ne i32 %43, 0
  %45 = zext i1 %44 to i32
  %46 = tail call i32 @test_true(ptr noundef nonnull @.str.17, i32 noundef 1686, ptr noundef nonnull @.str.773, i32 noundef %45) #8
  %.not44 = icmp eq i32 %46, 0
  br i1 %.not44, label %70, label %47

47:                                               ; preds = %41
  %48 = tail call fastcc i32 @equalBN(ptr noundef nonnull @.str.774, ptr noundef %14, ptr noundef %17)
  %.not45 = icmp eq i32 %48, 0
  br i1 %.not45, label %70, label %49

49:                                               ; preds = %47, %equalBN.exit
  %50 = call i32 @BN_hex2bn(ptr noundef nonnull %2, ptr noundef nonnull @.str.775) #8
  %51 = call i32 @BN_hex2bn(ptr noundef nonnull %3, ptr noundef nonnull @.str.776) #8
  %52 = call i32 @BN_hex2bn(ptr noundef nonnull %4, ptr noundef nonnull @.str.777) #8
  %53 = load ptr, ptr %2, align 8, !tbaa !21
  %54 = load ptr, ptr %3, align 8, !tbaa !21
  %55 = load ptr, ptr %4, align 8, !tbaa !21
  %56 = load ptr, ptr @ctx, align 8, !tbaa !6
  %57 = call i32 @BN_mod_exp(ptr noundef %20, ptr noundef %53, ptr noundef %54, ptr noundef %55, ptr noundef %56) #8
  %58 = icmp ne i32 %57, 0
  %59 = zext i1 %58 to i32
  %60 = call i32 @test_true(ptr noundef nonnull @.str.17, i32 noundef 1701, ptr noundef nonnull @.str.778, i32 noundef %59) #8
  %.not46 = icmp eq i32 %60, 0
  br i1 %.not46, label %70, label %61

61:                                               ; preds = %49
  %62 = load ptr, ptr %2, align 8, !tbaa !21
  %63 = load ptr, ptr @ctx, align 8, !tbaa !6
  %64 = call i32 @BN_mul(ptr noundef %8, ptr noundef %62, ptr noundef %62, ptr noundef %63) #8
  %65 = icmp ne i32 %64, 0
  %66 = zext i1 %65 to i32
  %67 = call i32 @test_true(ptr noundef nonnull @.str.17, i32 noundef 1702, ptr noundef nonnull @.str.779, i32 noundef %66) #8
  %.not47 = icmp eq i32 %67, 0
  br i1 %.not47, label %70, label %68

68:                                               ; preds = %61
  %69 = call i32 @test_BN_eq(ptr noundef nonnull @.str.17, i32 noundef 1703, ptr noundef nonnull @.str.88, ptr noundef nonnull @.str.101, ptr noundef %20, ptr noundef %8) #8
  %.not48 = icmp ne i32 %69, 0
  %spec.select = zext i1 %.not48 to i32
  br label %70

70:                                               ; preds = %equalBN.exit.thread, %68, %49, %61, %33, %39, %41, %47, %22, %1, %7, %10, %13, %16, %19
  %.033 = phi ptr [ %8, %61 ], [ %8, %49 ], [ %8, %47 ], [ %8, %41 ], [ %8, %39 ], [ %8, %33 ], [ %8, %22 ], [ %8, %19 ], [ %8, %16 ], [ %8, %13 ], [ %8, %10 ], [ %8, %7 ], [ null, %1 ], [ %8, %68 ], [ %8, %equalBN.exit.thread ]
  %.032 = phi ptr [ %11, %61 ], [ %11, %49 ], [ %11, %47 ], [ %11, %41 ], [ %11, %39 ], [ %11, %33 ], [ %11, %22 ], [ %11, %19 ], [ %11, %16 ], [ %11, %13 ], [ %11, %10 ], [ null, %7 ], [ null, %1 ], [ %11, %68 ], [ %11, %equalBN.exit.thread ]
  %.031 = phi ptr [ %14, %61 ], [ %14, %49 ], [ %14, %47 ], [ %14, %41 ], [ %14, %39 ], [ %14, %33 ], [ %14, %22 ], [ %14, %19 ], [ %14, %16 ], [ %14, %13 ], [ null, %10 ], [ null, %7 ], [ null, %1 ], [ %14, %68 ], [ %14, %equalBN.exit.thread ]
  %.030 = phi ptr [ %17, %61 ], [ %17, %49 ], [ %17, %47 ], [ %17, %41 ], [ %17, %39 ], [ %17, %33 ], [ %17, %22 ], [ %17, %19 ], [ %17, %16 ], [ null, %13 ], [ null, %10 ], [ null, %7 ], [ null, %1 ], [ %17, %68 ], [ %17, %equalBN.exit.thread ]
  %.029 = phi ptr [ %20, %61 ], [ %20, %49 ], [ %20, %47 ], [ %20, %41 ], [ %20, %39 ], [ %20, %33 ], [ %20, %22 ], [ %20, %19 ], [ null, %16 ], [ null, %13 ], [ null, %10 ], [ null, %7 ], [ null, %1 ], [ %20, %68 ], [ %20, %equalBN.exit.thread ]
  %.0 = phi i32 [ 0, %61 ], [ 0, %49 ], [ 0, %47 ], [ 0, %41 ], [ 0, %39 ], [ 0, %33 ], [ 0, %22 ], [ 0, %19 ], [ 0, %16 ], [ 0, %13 ], [ 0, %10 ], [ 0, %7 ], [ 0, %1 ], [ %spec.select, %68 ], [ 0, %equalBN.exit.thread ]
  %71 = load ptr, ptr %2, align 8, !tbaa !21
  call void @BN_free(ptr noundef %71) #8
  %72 = load ptr, ptr %3, align 8, !tbaa !21
  call void @BN_free(ptr noundef %72) #8
  %73 = load ptr, ptr %4, align 8, !tbaa !21
  call void @BN_free(ptr noundef %73) #8
  call void @BN_free(ptr noundef %.029) #8
  call void @BN_free(ptr noundef %.033) #8
  call void @BN_free(ptr noundef %.032) #8
  call void @BN_free(ptr noundef %.031) #8
  call void @BN_free(ptr noundef %.030) #8
  call void @llvm.lifetime.end.p0(i64 8, ptr nonnull %4) #8
  call void @llvm.lifetime.end.p0(i64 8, ptr nonnull %3) #8
  call void @llvm.lifetime.end.p0(i64 8, ptr nonnull %2) #8
  ret i32 %.0
}